target datalayout = "e-m:e-p270:32:32-p271:32:32-p272:64:64-i64:64-i128:128-f80:128-n8:16:32:64-S128"
target triple = "x86_64-pc-linux-gnu"

%struct.sharedObjectsStruct = type { ptr, ptr, ptr, ptr, ptr, ptr, ptr, ptr, [4 x ptr], [4 x ptr], [4 x ptr], [4 x ptr], ptr, ptr, ptr, ptr, ptr, ptr, ptr, ptr, ptr, ptr, ptr, ptr, ptr, ptr, ptr, ptr, ptr, ptr, ptr, ptr, ptr, ptr, ptr, ptr, ptr, ptr, ptr, ptr, ptr, ptr, ptr, ptr, ptr, ptr, ptr, ptr, ptr, ptr, ptr, ptr, ptr, ptr, ptr, ptr, ptr, ptr, ptr, ptr, ptr, ptr, ptr, ptr, ptr, ptr, ptr, ptr, ptr, ptr, ptr, ptr, ptr, ptr, ptr, ptr, ptr, ptr, ptr, ptr, ptr, ptr, ptr, ptr, ptr, ptr, ptr, ptr, [10 x ptr], [10000 x ptr], [32 x ptr], [32 x ptr], [32 x ptr], [32 x ptr], ptr, ptr }
%struct.client = type { i64, i64, ptr, i8, i8, i8, i8, i32, ptr, ptr, ptr, ptr, ptr, i64, i64, i32, ptr, i32, i32, ptr, i64, ptr, ptr, ptr, ptr, ptr, i32, i32, i64, ptr, i64, ptr, i64, i64, i64, i32, ptr, i64, i64, i32, i32, i32, i32, i64, i64, ptr, i64, i64, i64, i64, i64, i64, i64, i64, [41 x i8], i32, ptr, i32, i32, i64, %struct.multiState, %struct.blockingState, i64, ptr, ptr, ptr, ptr, ptr, ptr, ptr, ptr, ptr, ptr, ptr, ptr, ptr, ptr, i64, ptr, i64, i32, ptr, ptr, ptr, i64, %struct.listNode, i64, i64, i32, i64, ptr }
%struct.multiState = type { ptr, i32, i32, i32, i64, i32 }
%struct.blockingState = type { i32, i64, i32, ptr, i32, i32, i64, ptr, ptr, i64 }
%struct.listNode = type { ptr, ptr, ptr }

@shared = external global %struct.sharedObjectsStruct, align 8

; Function Attrs: nounwind uwtable
define dso_local void @unwatchCommand(ptr noundef %0) #0 {
  %2 = alloca ptr, align 8
  store ptr %0, ptr %2, align 8, !tbaa !5
  %3 = load ptr, ptr %2, align 8, !tbaa !5
  call void @unwatchAllKeys(ptr noundef %3)
  %4 = load ptr, ptr %2, align 8, !tbaa !5
  %5 = getelementptr inbounds nuw %struct.client, ptr %4, i32 0, i32 1
  %6 = load i64, ptr %5, align 8, !tbaa !45
  %7 = and i64 %6, -33
  store i64 %7, ptr %5, align 8, !tbaa !45
  %8 = load ptr, ptr %2, align 8, !tbaa !5
  %9 = load ptr, ptr @shared, align 8, !tbaa !87
  call void @addReply(ptr noundef %8, ptr noundef %9)
  ret void
}