; Function Attrs: nounwind uwtable
define dso_local void @unwatchCommand(ptr noundef %0) local_unnamed_addr #1 {
  tail call void @unwatchAllKeys(ptr noundef %0)
  %2 = getelementptr inbounds nuw i8, ptr %0, i64 8
  %3 = load i64, ptr %2, align 8, !tbaa !38
  %4 = and i64 %3, -33
  store i64 %4, ptr %2, align 8, !tbaa !38
  %5 = load ptr, ptr @shared, align 8, !tbaa !81
  tail call void @addReply(ptr noundef %0, ptr noundef %5) #10
  ret void
}